target datalayout = "e-m:e-p270:32:32-p271:32:32-p272:64:64-i64:64-i128:128-f80:128-n8:16:32:64-S128"
target triple = "x86_64-pc-linux-gnu"

%"class.llvm::StringRef" = type { ptr, i64 }
%"struct.llvm::TypeSetByHwMode" = type { %"struct.llvm::InfoByHwMode", i32, i32 }
%"struct.llvm::InfoByHwMode" = type { %"class.std::map" }
%"class.std::map" = type { %"class.std::_Rb_tree" }
%"class.std::_Rb_tree" = type { %"struct.std::_Rb_tree<unsigned int, std::pair<const unsigned int, llvm::MachineValueTypeSet>, std::_Select1st<std::pair<const unsigned int, llvm::MachineValueTypeSet>>, std::less<unsigned int>>::_Rb_tree_impl" }
%"struct.std::_Rb_tree<unsigned int, std::pair<const unsigned int, llvm::MachineValueTypeSet>, std::_Select1st<std::pair<const unsigned int, llvm::MachineValueTypeSet>>, std::less<unsigned int>>::_Rb_tree_impl" = type { [8 x i8], %"struct.std::_Rb_tree_header" }
%"struct.std::_Rb_tree_header" = type { %"struct.std::_Rb_tree_node_base", i64 }
%"struct.std::_Rb_tree_node_base" = type { i32, ptr, ptr, ptr }
%"struct.llvm::TypeInfer" = type { ptr, i8, i8, %"struct.llvm::TypeSetByHwMode" }
%"class.llvm::TreePattern" = type { %"class.std::vector", %"class.llvm::StringMap", ptr, %"class.std::vector.41", ptr, i8, i8, %"class.llvm::StringMap.46", %"struct.llvm::TypeInfer" }
%"class.std::vector" = type { %"struct.std::_Vector_base" }
%"struct.std::_Vector_base" = type { %"struct.std::_Vector_base<llvm::IntrusiveRefCntPtr<llvm::TreePatternNode>, std::allocator<llvm::IntrusiveRefCntPtr<llvm::TreePatternNode>>>::_Vector_impl" }
%"struct.std::_Vector_base<llvm::IntrusiveRefCntPtr<llvm::TreePatternNode>, std::allocator<llvm::IntrusiveRefCntPtr<llvm::TreePatternNode>>>::_Vector_impl" = type { %"struct.std::_Vector_base<llvm::IntrusiveRefCntPtr<llvm::TreePatternNode>, std::allocator<llvm::IntrusiveRefCntPtr<llvm::TreePatternNode>>>::_Vector_impl_data" }
%"struct.std::_Vector_base<llvm::IntrusiveRefCntPtr<llvm::TreePatternNode>, std::allocator<llvm::IntrusiveRefCntPtr<llvm::TreePatternNode>>>::_Vector_impl_data" = type { ptr, ptr, ptr }
%"class.llvm::StringMap" = type { %"class.llvm::StringMapImpl" }
%"class.llvm::StringMapImpl" = type { ptr, i32, i32, i32, i32 }
%"class.std::vector.41" = type { %"struct.std::_Vector_base.42" }
%"struct.std::_Vector_base.42" = type { %"struct.std::_Vector_base<std::__cxx11::basic_string<char>, std::allocator<std::__cxx11::basic_string<char>>>::_Vector_impl" }
%"struct.std::_Vector_base<std::__cxx11::basic_string<char>, std::allocator<std::__cxx11::basic_string<char>>>::_Vector_impl" = type { %"struct.std::_Vector_base<std::__cxx11::basic_string<char>, std::allocator<std::__cxx11::basic_string<char>>>::_Vector_impl_data" }
%"struct.std::_Vector_base<std::__cxx11::basic_string<char>, std::allocator<std::__cxx11::basic_string<char>>>::_Vector_impl_data" = type { ptr, ptr, ptr }
%"class.llvm::StringMap.46" = type { %"class.llvm::StringMapImpl" }
%"class.llvm::TreePredicateFn" = type { ptr }

@.str.90 = private unnamed_addr constant [19 x i8] c"GISelPredicateCode\00", align 1

; Function Attrs: mustprogress nounwind uwtable
define linkonce_odr hidden noundef i64 @_ZNSt11char_traitsIcE6lengthEPKc(ptr noundef %0) #0 comdat align 2 {
  %2 = alloca ptr, align 8
  store ptr %0, ptr %2, align 8
  %3 = load ptr, ptr %2, align 8
  %4 = call i64 @strlen(ptr noundef %3) #4
  ret i64 %4
}

; Function Attrs: mustprogress nounwind uwtable
define linkonce_odr hidden noundef zeroext i1 @_ZNK4llvm9StringRef5emptyEv(ptr noundef nonnull align 8 dereferenceable(16) %0) #0 comdat align 2 {
  %2 = alloca ptr, align 8
  store ptr %0, ptr %2, align 8
  %3 = load ptr, ptr %2, align 8
  %4 = getelementptr inbounds nuw %"class.llvm::StringRef", ptr %3, i32 0, i32 1
  %5 = load i64, ptr %4, align 8
  %6 = icmp eq i64 %5, 0
  ret i1 %6
}

; Function Attrs: mustprogress nounwind uwtable
define linkonce_odr hidden void @_ZN4llvm9StringRefC2EPKc(ptr noundef nonnull align 8 dereferenceable(16) %0, ptr noundef %1) unnamed_addr #0 comdat align 2 {
  %3 = alloca ptr, align 8
  %4 = alloca ptr, align 8
  store ptr %0, ptr %3, align 8
  store ptr %1, ptr %4, align 8
  %5 = load ptr, ptr %3, align 8
  %6 = getelementptr inbounds nuw %"class.llvm::StringRef", ptr %5, i32 0, i32 0
  %7 = load ptr, ptr %4, align 8
  store ptr %7, ptr %6, align 8
  %8 = getelementptr inbounds nuw %"class.llvm::StringRef", ptr %5, i32 0, i32 1
  %9 = load ptr, ptr %4, align 8
  %10 = icmp ne ptr %9, null
  br i1 %10, label %11, label %14

11:                                               ; preds = %2
  %12 = load ptr, ptr %4, align 8
  %13 = call noundef i64 @_ZNSt11char_traitsIcE6lengthEPKc(ptr noundef %12)
  br label %15

14:                                               ; preds = %2
  br label %15

15:                                               ; preds = %14, %11
  %16 = phi i64 [ %13, %11 ], [ 0, %14 ]
  store i64 %16, ptr %8, align 8
  ret void
}

; Function Attrs: mustprogress nounwind uwtable
define linkonce_odr hidden noundef ptr @_ZNK4llvm11TreePattern9getRecordEv(ptr noundef nonnull align 8 dereferenceable(192) %0) #0 comdat align 2 {
  %2 = alloca ptr, align 8
  store ptr %0, ptr %2, align 8
  %3 = load ptr, ptr %2, align 8
  %4 = getelementptr inbounds nuw %"class.llvm::TreePattern", ptr %3, i32 0, i32 2
  %5 = load ptr, ptr %4, align 8
  ret ptr %5
}

; Function Attrs: mustprogress nounwind uwtable
define dso_local noundef zeroext i1 @_ZNK4llvm15TreePredicateFn21hasGISelPredicateCodeEv(ptr noundef nonnull align 8 dereferenceable(8) %0) #0 align 2 {
  %2 = alloca ptr, align 8
  %3 = alloca %"class.llvm::StringRef", align 8
  %4 = alloca %"class.llvm::StringRef", align 8
  store ptr %0, ptr %2, align 8
  %5 = load ptr, ptr %2, align 8
  %6 = getelementptr inbounds nuw %"class.llvm::TreePredicateFn", ptr %5, i32 0, i32 0
  %7 = load ptr, ptr %6, align 8
  %8 = call noundef ptr @_ZNK4llvm11TreePattern9getRecordEv(ptr noundef nonnull align 8 dereferenceable(192) %7)
  call void @_ZN4llvm9StringRefC2EPKc(ptr noundef nonnull align 8 dereferenceable(16) %4, ptr noundef @.str.90)
  %9 = getelementptr inbounds nuw { ptr, i64 }, ptr %4, i32 0, i32 0
  %10 = load ptr, ptr %9, align 8
  %11 = getelementptr inbounds nuw { ptr, i64 }, ptr %4, i32 0, i32 1
  %12 = load i64, ptr %11, align 8
  %13 = call { ptr, i64 } @_ZNK4llvm6Record16getValueAsStringENS_9StringRefE(ptr noundef nonnull align 8 dereferenceable(192) %8, ptr %10, i64 %12)
  %14 = getelementptr inbounds nuw { ptr, i64 }, ptr %3, i32 0, i32 0
  %15 = extractvalue { ptr, i64 } %13, 0
  store ptr %15, ptr %14, align 8
  %16 = getelementptr inbounds nuw { ptr, i64 }, ptr %3, i32 0, i32 1
  %17 = extractvalue { ptr, i64 } %13, 1
  store i64 %17, ptr %16, align 8
  %18 = call noundef zeroext i1 @_ZNK4llvm9StringRef5emptyEv(ptr noundef nonnull align 8 dereferenceable(16) %3)
  %19 = xor i1 %18, true
  ret i1 %19
}